; Function Attrs: mustprogress sspstrong uwtable
define void @_ZN3tbb6detail2r123task_group_context_impl19capture_fp_settingsERNS0_2d118task_group_contextE(ptr noundef nonnull align 8 dereferenceable(128) %0) local_unnamed_addr #8 align 2 {
  %2 = getelementptr inbounds nuw i8, ptr %0, i64 13
  %3 = load i8, ptr %2, align 1
  %4 = trunc i8 %3 to i1
  br i1 %4, label %8, label %5

5:                                                ; preds = %1
  store i32 0, ptr %0, align 8, !tbaa !52
  %6 = getelementptr inbounds nuw i8, ptr %0, i64 4
  store i16 0, ptr %6, align 4, !tbaa !55
  %7 = or disjoint i8 %3, 1
  store i8 %7, ptr %2, align 1
  br label %8

8:                                                ; preds = %5, %1
  %9 = getelementptr inbounds nuw i8, ptr %0, i64 4
  tail call void asm sideeffect "stmxcsr $0\0A\09fstcw $1", "=*m,=*m,~{dirflag},~{fpsr},~{flags}"(ptr nonnull elementtype(i32) align 4 dereferenceable(6) %0, ptr nonnull elementtype(i16) %9) #13, !srcloc !56
  %10 = load i32, ptr %0, align 8, !tbaa !52
  %11 = and i32 %10, -64
  store i32 %11, ptr %0, align 8, !tbaa !52
  ret void
}